; Function Attrs: nounwind uwtable
define void @b2CollideChainSegmentAndCapsule(ptr dead_on_unwind noalias writable sret(%struct.b2Manifold) align 4 captures(none) initializes((0, 112)) %0, ptr noundef %1, <2 x float> %2, <2 x float> %3, ptr noundef readonly captures(none) %4, <2 x float> %5, <2 x float> %6, ptr noundef %7) local_unnamed_addr #6 {
  %9 = alloca %struct.b2Polygon, align 8
  call void @llvm.lifetime.start.p0(i64 144, ptr nonnull %9) #10
  %10 = getelementptr inbounds nuw i8, ptr %4, i64 8
  %11 = getelementptr inbounds nuw i8, ptr %4, i64 16
  %12 = load float, ptr %11, align 4, !tbaa !17
  %13 = load <2 x float>, ptr %4, align 4
  %14 = load <2 x float>, ptr %10, align 4
  %15 = getelementptr inbounds nuw i8, ptr %9, i64 16
  call void @llvm.memset.p0.i64(ptr noundef nonnull align 8 dereferenceable(144) %15, i8 0, i64 112, i1 false), !alias.scope !43
  store <2 x float> %13, ptr %9, align 8, !alias.scope !43
  %16 = getelementptr inbounds nuw i8, ptr %9, i64 8
  store <2 x float> %14, ptr %16, align 8, !alias.scope !43
  %17 = getelementptr inbounds nuw i8, ptr %9, i64 128
  %.sroa.04.0.vec.extract.i.i = extractelement <2 x float> %13, i64 0
  %18 = fmul float %.sroa.04.0.vec.extract.i.i, 5.000000e-01
  %.sroa.0.0.vec.extract.i.i = extractelement <2 x float> %14, i64 0
  %19 = fmul float %.sroa.0.0.vec.extract.i.i, 5.000000e-01
  %20 = fadd float %18, %19
  %.sroa.05.0.vec.insert.i.i = insertelement <2 x float> poison, float %20, i64 0
  %.sroa.04.4.vec.extract.i.i = extractelement <2 x float> %13, i64 1
  %21 = fmul float %.sroa.04.4.vec.extract.i.i, 5.000000e-01
  %.sroa.0.4.vec.extract.i.i = extractelement <2 x float> %14, i64 1
  %22 = fmul float %.sroa.0.4.vec.extract.i.i, 5.000000e-01
  %23 = fadd float %21, %22
  %.sroa.05.4.vec.insert.i.i = insertelement <2 x float> %.sroa.05.0.vec.insert.i.i, float %23, i64 1
  store <2 x float> %.sroa.05.4.vec.insert.i.i, ptr %17, align 8, !alias.scope !43
  %24 = fsub <2 x float> %14, %13
  %25 = fsub float %.sroa.0.4.vec.extract.i.i, %.sroa.04.4.vec.extract.i.i
  %26 = fmul <2 x float> %24, %24
  %27 = extractelement <2 x float> %26, i64 0
  %28 = fmul float %25, %25
  %29 = fadd float %27, %28
  %sqrt.i.i = tail call float @llvm.sqrt.f32(float %29)
  %30 = fcmp olt float %sqrt.i.i, 0x3E80000000000000
  br i1 %30, label %b2MakeCapsule.exit, label %31

31:                                               ; preds = %8
  %32 = extractelement <2 x float> %24, i64 0
  %33 = fdiv float 1.000000e+00, %sqrt.i.i
  %34 = fmul float %32, %33
  %.sroa.012.0.vec.insert.i.i = insertelement <2 x float> poison, float %34, i64 0
  %35 = fmul float %25, %33
  %.sroa.012.4.vec.insert.i.i = insertelement <2 x float> %.sroa.012.0.vec.insert.i.i, float %35, i64 1
  br label %b2MakeCapsule.exit

b2MakeCapsule.exit:                               ; preds = %8, %31
  %.sroa.012.0.i.i = phi <2 x float> [ %.sroa.012.4.vec.insert.i.i, %31 ], [ zeroinitializer, %8 ]
  %.sroa.0.4.vec.extract.i13.i = extractelement <2 x float> %.sroa.012.0.i.i, i64 1
  %.sroa.01.0.vec.insert.i.i = insertelement <2 x float> poison, float %.sroa.0.4.vec.extract.i13.i, i64 0
  %.sroa.0.0.vec.extract.i14.i = extractelement <2 x float> %.sroa.012.0.i.i, i64 0
  %36 = fneg float %.sroa.0.0.vec.extract.i14.i
  %.sroa.01.4.vec.insert.i.i = insertelement <2 x float> %.sroa.01.0.vec.insert.i.i, float %36, i64 1
  %37 = getelementptr inbounds nuw i8, ptr %9, i64 64
  store <2 x float> %.sroa.01.4.vec.insert.i.i, ptr %37, align 8, !alias.scope !43
  %38 = getelementptr inbounds nuw i8, ptr %9, i64 72
  %39 = fneg float %.sroa.0.4.vec.extract.i13.i
  %.sroa.01.0.vec.insert.i16.i = insertelement <2 x float> poison, float %39, i64 0
  %.sroa.01.4.vec.insert.i18.i = shufflevector <2 x float> %.sroa.01.0.vec.insert.i16.i, <2 x float> %.sroa.012.0.i.i, <2 x i32> <i32 0, i32 2>
  store <2 x float> %.sroa.01.4.vec.insert.i18.i, ptr %38, align 8, !alias.scope !43
  %40 = getelementptr inbounds nuw i8, ptr %9, i64 140
  store i32 2, ptr %40, align 4, !tbaa !21, !alias.scope !43
  %41 = getelementptr inbounds nuw i8, ptr %9, i64 136
  store float %12, ptr %41, align 8, !tbaa !19, !alias.scope !43
  call void @b2CollideChainSegmentAndPolygon(ptr dead_on_unwind writable sret(%struct.b2Manifold) align 4 %0, ptr noundef %1, <2 x float> %2, <2 x float> %3, ptr noundef nonnull %9, <2 x float> %5, <2 x float> %6, ptr noundef %7)
  call void @llvm.lifetime.end.p0(i64 144, ptr nonnull %9) #10
  ret void
}